; ModuleID = '1/1681.cpp'
source_filename = "1/1681.cpp"
target datalayout = "e-m:e-p270:32:32-p271:32:32-p272:64:64-i64:64-f80:128-n8:16:32:64-S128"
target triple = "x86_64-pc-linux-gnu"

%"class.std::ios_base::Init" = type { i8 }
%"class.std::basic_istream" = type { i32 (...)**, i64, %"class.std::basic_ios" }
%"class.std::basic_ios" = type { %"class.std::ios_base", %"class.std::basic_ostream"*, i8, i8, %"class.std::basic_streambuf"*, %"class.std::ctype"*, %"class.std::num_put"*, %"class.std::num_get"* }
%"class.std::ios_base" = type { i32 (...)**, i64, i64, i32, i32, i32, %"struct.std::ios_base::_Callback_list"*, %"struct.std::ios_base::_Words", [8 x %"struct.std::ios_base::_Words"], i32, %"struct.std::ios_base::_Words"*, %"class.std::locale" }
%"struct.std::ios_base::_Callback_list" = type { %"struct.std::ios_base::_Callback_list"*, void (i32, %"class.std::ios_base"*, i32)*, i32, i32 }
%"struct.std::ios_base::_Words" = type { i8*, i64 }
%"class.std::locale" = type { %"class.std::locale::_Impl"* }
%"class.std::locale::_Impl" = type { i32, %"class.std::locale::facet"**, i64, %"class.std::locale::facet"**, i8** }
%"class.std::locale::facet" = type <{ i32 (...)**, i32, [4 x i8] }>
%"class.std::basic_ostream" = type { i32 (...)**, %"class.std::basic_ios" }
%"class.std::basic_streambuf" = type { i32 (...)**, i8*, i8*, i8*, i8*, i8*, i8*, %"class.std::locale" }
%"class.std::ctype" = type <{ %"class.std::locale::facet.base", [4 x i8], %struct.__locale_struct*, i8, [7 x i8], i32*, i32*, i16*, i8, [256 x i8], [256 x i8], i8, [6 x i8] }>
%"class.std::locale::facet.base" = type <{ i32 (...)**, i32 }>
%struct.__locale_struct = type { [13 x %struct.__locale_data*], i16*, i32*, i32*, [13 x i8*] }
%struct.__locale_data = type opaque
%"class.std::num_put" = type { %"class.std::locale::facet.base", [4 x i8] }
%"class.std::num_get" = type { %"class.std::locale::facet.base", [4 x i8] }

@_ZStL8__ioinit = internal global %"class.std::ios_base::Init" zeroinitializer, align 1
@__dso_handle = external hidden global i8
@cc = dso_local global i32 0, align 4
@_ZSt3cin = external dso_local global %"class.std::basic_istream", align 8
@_ZSt4cout = external dso_local global %"class.std::basic_ostream", align 8
@llvm.global_ctors = appending global [1 x { i32, void ()*, i8* }] [{ i32, void ()*, i8* } { i32 65535, void ()* @_GLOBAL__sub_I_1681.cpp, i8* null }]

; Function Attrs: noinline uwtable
define internal void @__cxx_global_var_init() #0 section ".text.startup" {
  call void @_ZNSt8ios_base4InitC1Ev(%"class.std::ios_base::Init"* @_ZStL8__ioinit)
  %1 = call i32 @__cxa_atexit(void (i8*)* bitcast (void (%"class.std::ios_base::Init"*)* @_ZNSt8ios_base4InitD1Ev to void (i8*)*), i8* getelementptr inbounds (%"class.std::ios_base::Init", %"class.std::ios_base::Init"* @_ZStL8__ioinit, i32 0, i32 0), i8* @__dso_handle) #3
  ret void
}

declare dso_local void @_ZNSt8ios_base4InitC1Ev(%"class.std::ios_base::Init"*) unnamed_addr #1

; Function Attrs: nounwind
declare dso_local void @_ZNSt8ios_base4InitD1Ev(%"class.std::ios_base::Init"*) unnamed_addr #2

; Function Attrs: nounwind
declare dso_local i32 @__cxa_atexit(void (i8*)*, i8*, i8*) #3

; Function Attrs: noinline norecurse uwtable
define dso_local i32 @main() #4 {
  %1 = alloca i32, align 4
  %2 = alloca i32, align 4
  %3 = alloca i32, align 4
  %4 = alloca i32, align 4
  store i32 0, i32* %1, align 4
  store i32 0, i32* %2, align 4
  store i32 0, i32* %3, align 4
  %5 = call dereferenceable(280) %"class.std::basic_istream"* @_ZNSirsERi(%"class.std::basic_istream"* @_ZSt3cin, i32* dereferenceable(4) %2)
  store i32 1, i32* %3, align 4
  br label %6

6:                                                ; preds = %16, %0
  %7 = load i32, i32* %3, align 4
  %8 = load i32, i32* %2, align 4
  %9 = icmp sle i32 %7, %8
  br i1 %9, label %10, label %19

10:                                               ; preds = %6
  store i32 0, i32* @cc, align 4
  %11 = call dereferenceable(280) %"class.std::basic_istream"* @_ZNSirsERi(%"class.std::basic_istream"* @_ZSt3cin, i32* dereferenceable(4) %4)
  %12 = load i32, i32* %4, align 4
  call void @_Z3fenii(i32 %12, i32 2)
  %13 = load i32, i32* @cc, align 4
  %14 = call dereferenceable(272) %"class.std::basic_ostream"* @_ZNSolsEi(%"class.std::basic_ostream"* @_ZSt4cout, i32 %13)
  %15 = call dereferenceable(272) %"class.std::basic_ostream"* @_ZNSolsEPFRSoS_E(%"class.std::basic_ostream"* %14, %"class.std::basic_ostream"* (%"class.std::basic_ostream"*)* @_ZSt4endlIcSt11char_traitsIcEERSt13basic_ostreamIT_T0_ES6_)
  br label %16

16:                                               ; preds = %10
  %17 = load i32, i32* %3, align 4
  %18 = add nsw i32 %17, 1
  store i32 %18, i32* %3, align 4
  br label %6

19:                                               ; preds = %6
  ret i32 0
}

declare dso_local dereferenceable(280) %"class.std::basic_istream"* @_ZNSirsERi(%"class.std::basic_istream"*, i32* dereferenceable(4)) #1

; Function Attrs: noinline uwtable
define dso_local void @_Z3fenii(i32 %0, i32 %1) #0 {
  %3 = alloca i32, align 4
  %4 = alloca i32, align 4
  %5 = alloca i32, align 4
  store i32 %0, i32* %3, align 4
  store i32 %1, i32* %4, align 4
  store i32 2, i32* %5, align 4
  br label %6

6:                                                ; preds = %45, %2
  %7 = load i32, i32* %5, align 4
  %8 = load i32, i32* %3, align 4
  %9 = icmp sle i32 %7, %8
  br i1 %9, label %10, label %48

10:                                               ; preds = %6
  %11 = load i32, i32* %3, align 4
  %12 = load i32, i32* %5, align 4
  %13 = srem i32 %11, %12
  %14 = icmp eq i32 %13, 0
  br i1 %14, label %15, label %28

15:                                               ; preds = %10
  %16 = load i32, i32* %5, align 4
  %17 = load i32, i32* %4, align 4
  %18 = icmp sge i32 %16, %17
  br i1 %18, label %19, label %28

19:                                               ; preds = %15
  %20 = load i32, i32* %5, align 4
  %21 = load i32, i32* %3, align 4
  %22 = icmp slt i32 %20, %21
  br i1 %22, label %23, label %28

23:                                               ; preds = %19
  %24 = load i32, i32* %3, align 4
  %25 = load i32, i32* %5, align 4
  %26 = sdiv i32 %24, %25
  %27 = load i32, i32* %5, align 4
  call void @_Z3fenii(i32 %26, i32 %27)
  br label %28

28:                                               ; preds = %23, %19, %15, %10
  %29 = load i32, i32* %3, align 4
  %30 = load i32, i32* %5, align 4
  %31 = srem i32 %29, %30
  %32 = icmp eq i32 %31, 0
  br i1 %32, label %33, label %44

33:                                               ; preds = %28
  %34 = load i32, i32* %5, align 4
  %35 = load i32, i32* %4, align 4
  %36 = icmp sge i32 %34, %35
  br i1 %36, label %37, label %44

37:                                               ; preds = %33
  %38 = load i32, i32* %5, align 4
  %39 = load i32, i32* %3, align 4
  %40 = icmp eq i32 %38, %39
  br i1 %40, label %41, label %44

41:                                               ; preds = %37
  %42 = load i32, i32* @cc, align 4
  %43 = add nsw i32 %42, 1
  store i32 %43, i32* @cc, align 4
  br label %44

44:                                               ; preds = %41, %37, %33, %28
  br label %45

45:                                               ; preds = %44
  %46 = load i32, i32* %5, align 4
  %47 = add nsw i32 %46, 1
  store i32 %47, i32* %5, align 4
  br label %6

48:                                               ; preds = %6
  ret void
}

declare dso_local dereferenceable(272) %"class.std::basic_ostream"* @_ZNSolsEi(%"class.std::basic_ostream"*, i32) #1

declare dso_local dereferenceable(272) %"class.std::basic_ostream"* @_ZNSolsEPFRSoS_E(%"class.std::basic_ostream"*, %"class.std::basic_ostream"* (%"class.std::basic_ostream"*)*) #1

declare dso_local dereferenceable(272) %"class.std::basic_ostream"* @_ZSt4endlIcSt11char_traitsIcEERSt13basic_ostreamIT_T0_ES6_(%"class.std::basic_ostream"* dereferenceable(272)) #1

; Function Attrs: noinline uwtable
define internal void @_GLOBAL__sub_I_1681.cpp() #0 section ".text.startup" {
  call void @__cxx_global_var_init()
  ret void
}


!llvm.module.flags = !{!0}
!llvm.ident = !{!1}

!0 = !{i32 1, !"wchar_size", i32 4}
!1 = !{!"clang version 10.0.0-4ubuntu1 "}
